; Function Attrs: nounwind uwtable
define noalias ptr @l_Lean_IR_Borrow_ownArgsUsingParams(ptr noundef readonly captures(none) %0, ptr noundef readonly captures(none) %1, ptr noundef readonly captures(none) %2, ptr noundef %3) local_unnamed_addr #1 {
lean_dec.exit:
  %4 = getelementptr i8, ptr %0, i64 8
  %.val = load i64, ptr %4, align 8, !tbaa !13
  %5 = shl i64 %.val, 1
  %6 = or disjoint i64 %5, 1
  %7 = inttoptr i64 %6 to ptr
  %8 = tail call ptr @l_Nat_forM_loop___at_Lean_IR_Borrow_ownArgsUsingParams___spec__1(ptr noundef %0, ptr noundef %1, ptr noundef nonnull %7, ptr noundef nonnull %7, ptr nonnull poison, ptr noundef %2, ptr noundef %3)
  ret ptr %8
}